#include <math.h>
#include <stdio.h>
#include <stdlib.h>
#include <string.h>

main()
{
	int a[10000],*b,n,m,i,j;
	scanf("%d""%d",&n,&m);
	for(i=0;i<=n-1;i++)
	{
		scanf("%d",&a[i]);
	}
	b=&a[0];
	for(i=n-m;i<=n-1;i++)
	{
		printf("%d ",*(b+i));		
	}
	for(i=0;i<=n-m-1;i++)
	{
		printf("%d",*(b+i));
		if(i!=n-m-1) printf(" ");
	}

}