; ModuleID = 'source-C-CXX/51/1638.c'
source_filename = "source-C-CXX/51/1638.c"
target datalayout = "e-m:e-p270:32:32-p271:32:32-p272:64:64-i64:64-f80:128-n8:16:32:64-S128"
target triple = "x86_64-pc-linux-gnu"

@.str = private unnamed_addr constant [5 x i8] c"%d%d\00", align 1
@.str.1 = private unnamed_addr constant [3 x i8] c"%d\00", align 1
@.str.2 = private unnamed_addr constant [4 x i8] c"%d \00", align 1

; Function Attrs: nofree nounwind sspstrong uwtable
define dso_local i32 @main() local_unnamed_addr #0 {
  %1 = alloca [10000 x i32], align 16
  %2 = alloca i32, align 4
  %3 = alloca i32, align 4
  %4 = bitcast [10000 x i32]* %1 to i8*
  call void @llvm.lifetime.start.p0i8(i64 40000, i8* nonnull %4) #4
  %5 = bitcast i32* %2 to i8*
  call void @llvm.lifetime.start.p0i8(i64 4, i8* nonnull %5) #4
  %6 = bitcast i32* %3 to i8*
  call void @llvm.lifetime.start.p0i8(i64 4, i8* nonnull %6) #4
  %7 = call i32 (i8*, ...) @__isoc99_scanf(i8* getelementptr inbounds ([5 x i8], [5 x i8]* @.str, i64 0, i64 0), i32* nonnull %2, i32* nonnull %3)
  %8 = load i32, i32* %2, align 4, !tbaa !5
  %9 = icmp sgt i32 %8, 0
  br i1 %9, label %10, label %18

10:                                               ; preds = %0, %10
  %11 = phi i64 [ %14, %10 ], [ 0, %0 ]
  %12 = getelementptr inbounds [10000 x i32], [10000 x i32]* %1, i64 0, i64 %11
  %13 = call i32 (i8*, ...) @__isoc99_scanf(i8* getelementptr inbounds ([3 x i8], [3 x i8]* @.str.1, i64 0, i64 0), i32* nonnull %12)
  %14 = add nuw nsw i64 %11, 1
  %15 = load i32, i32* %2, align 4, !tbaa !5
  %16 = sext i32 %15 to i64
  %17 = icmp slt i64 %14, %16
  br i1 %17, label %10, label %18, !llvm.loop !9

18:                                               ; preds = %10, %0
  %19 = phi i32 [ %8, %0 ], [ %15, %10 ]
  %20 = load i32, i32* %3, align 4, !tbaa !5
  %21 = sub i32 %19, %20
  %22 = icmp slt i32 %21, %19
  br i1 %22, label %23, label %27

23:                                               ; preds = %18
  %24 = sext i32 %21 to i64
  br label %33

25:                                               ; preds = %33
  %26 = load i32, i32* %3, align 4, !tbaa !5
  br label %27

27:                                               ; preds = %25, %18
  %28 = phi i32 [ %26, %25 ], [ %20, %18 ]
  %29 = phi i32 [ %39, %25 ], [ %19, %18 ]
  %30 = xor i32 %28, -1
  %31 = add i32 %29, %30
  %32 = icmp slt i32 %31, 0
  br i1 %32, label %64, label %42

33:                                               ; preds = %23, %33
  %34 = phi i64 [ %24, %23 ], [ %38, %33 ]
  %35 = getelementptr inbounds [10000 x i32], [10000 x i32]* %1, i64 0, i64 %34
  %36 = load i32, i32* %35, align 4, !tbaa !5
  %37 = call i32 (i8*, ...) @printf(i8* nonnull dereferenceable(1) getelementptr inbounds ([4 x i8], [4 x i8]* @.str.2, i64 0, i64 0), i32 %36)
  %38 = add nsw i64 %34, 1
  %39 = load i32, i32* %2, align 4, !tbaa !5
  %40 = sext i32 %39 to i64
  %41 = icmp slt i64 %38, %40
  br i1 %41, label %33, label %25, !llvm.loop !11

42:                                               ; preds = %27, %59
  %43 = phi i64 [ %61, %59 ], [ 0, %27 ]
  %44 = getelementptr inbounds [10000 x i32], [10000 x i32]* %1, i64 0, i64 %43
  %45 = load i32, i32* %44, align 4, !tbaa !5
  %46 = call i32 (i8*, ...) @printf(i8* nonnull dereferenceable(1) getelementptr inbounds ([3 x i8], [3 x i8]* @.str.1, i64 0, i64 0), i32 %45)
  %47 = load i32, i32* %2, align 4, !tbaa !5
  %48 = load i32, i32* %3, align 4, !tbaa !5
  %49 = xor i32 %48, -1
  %50 = add i32 %47, %49
  %51 = zext i32 %50 to i64
  %52 = icmp eq i64 %43, %51
  br i1 %52, label %59, label %53

53:                                               ; preds = %42
  %54 = call i32 @putchar(i32 32)
  %55 = load i32, i32* %2, align 4, !tbaa !5
  %56 = load i32, i32* %3, align 4, !tbaa !5
  %57 = xor i32 %56, -1
  %58 = add i32 %55, %57
  br label %59

59:                                               ; preds = %42, %53
  %60 = phi i32 [ %50, %42 ], [ %58, %53 ]
  %61 = add nuw nsw i64 %43, 1
  %62 = sext i32 %60 to i64
  %63 = icmp slt i64 %43, %62
  br i1 %63, label %42, label %64, !llvm.loop !12

64:                                               ; preds = %59, %27
  call void @llvm.lifetime.end.p0i8(i64 4, i8* nonnull %6) #4
  call void @llvm.lifetime.end.p0i8(i64 4, i8* nonnull %5) #4
  call void @llvm.lifetime.end.p0i8(i64 40000, i8* nonnull %4) #4
  ret i32 0
}

; Function Attrs: argmemonly mustprogress nofree nosync nounwind willreturn
declare void @llvm.lifetime.start.p0i8(i64 immarg, i8* nocapture) #1

; Function Attrs: nofree nounwind
declare noundef i32 @__isoc99_scanf(i8* nocapture noundef readonly, ...) local_unnamed_addr #2

; Function Attrs: nofree nounwind
declare noundef i32 @printf(i8* nocapture noundef readonly, ...) local_unnamed_addr #2

; Function Attrs: argmemonly mustprogress nofree nosync nounwind willreturn
declare void @llvm.lifetime.end.p0i8(i64 immarg, i8* nocapture) #1

; Function Attrs: nofree nounwind
declare noundef i32 @putchar(i32 noundef) local_unnamed_addr #3


!llvm.module.flags = !{!0, !1, !2, !3}
!llvm.ident = !{!4}

!0 = !{i32 1, !"wchar_size", i32 4}
!1 = !{i32 7, !"PIC Level", i32 2}
!2 = !{i32 7, !"PIE Level", i32 2}
!3 = !{i32 7, !"uwtable", i32 1}
!4 = !{!"clang version 13.0.0"}
!5 = !{!6, !6, i64 0}
!6 = !{!"int", !7, i64 0}
!7 = !{!"omnipotent char", !8, i64 0}
!8 = !{!"Simple C/C++ TBAA"}
!9 = distinct !{!9, !10}
!10 = !{!"llvm.loop.mustprogress"}
!11 = distinct !{!11, !10}
!12 = distinct !{!12, !10}
